target datalayout = "e-m:e-p270:32:32-p271:32:32-p272:64:64-i64:64-i128:128-f80:128-n8:16:32:64-S128"
target triple = "x86_64-pc-linux-gnu"

%struct.Cec_ManSat_t_ = type { ptr, ptr, ptr, ptr, ptr, i32, ptr, ptr, i32, i32, ptr, ptr, ptr, i32, i32, i32, i32, i32, i32, i32, i32, i32, i32, i32, i32 }
%struct.Gia_Man_t_ = type { ptr, ptr, i32, i32, i32, i32, ptr, ptr, i32, i32, i32, ptr, ptr, %struct.Vec_Int_t_, %struct.Vec_Int_t_, i32, i32, i32, %struct.Vec_Int_t_, ptr, ptr, ptr, i32, i32, i32, i32, ptr, ptr, ptr, ptr, ptr, i32, i32, ptr, i32, ptr, ptr, ptr, ptr, ptr, ptr, ptr, ptr, ptr, ptr, ptr, ptr, ptr, ptr, ptr, ptr, ptr, ptr, %struct.Vec_Int_t_, %struct.Vec_Int_t_, ptr, ptr, ptr, ptr, ptr, ptr, ptr, ptr, ptr, ptr, ptr, ptr, ptr, ptr, ptr, ptr, ptr, ptr, ptr, ptr, ptr, i32, float, float, ptr, ptr, i32, ptr, ptr, ptr, ptr, ptr, ptr, ptr, ptr, ptr, ptr, ptr, ptr, ptr, ptr, ptr, i64, i64, ptr, ptr, i32, i32, i32, i32, i32, i32, i32, i32, i32, i32, i32, i32, ptr, ptr, ptr, ptr, ptr, ptr, ptr, ptr, i32, i32, i32, ptr, i32, i32, ptr, ptr, ptr, ptr, ptr, ptr, i32, i32, ptr, %struct.Vec_Int_t_, %struct.Vec_Int_t_, %struct.Vec_Int_t_, ptr, ptr, ptr, i32, i32, i32, i32, ptr, ptr, ptr, ptr, ptr }
%struct.Vec_Int_t_ = type { i32, i32, ptr }
%struct.Cec_ParSat_t_ = type { i32, i32, i32, i32, i32, i32, i32, i32, i32, i32 }

@.str = private unnamed_addr constant [24 x i8] c"SAT solver statistics:\0A\00", align 1
@.str.1 = private unnamed_addr constant [11 x i8] c"CO = %8d  \00", align 1
@.str.2 = private unnamed_addr constant [12 x i8] c"AND = %8d  \00", align 1
@.str.3 = private unnamed_addr constant [13 x i8] c"Conf = %5d  \00", align 1
@.str.4 = private unnamed_addr constant [15 x i8] c"MinVar = %5d  \00", align 1
@.str.5 = private unnamed_addr constant [16 x i8] c"MinCalls = %5d\0A\00", align 1
@.str.6 = private unnamed_addr constant [50 x i8] c"Unsat calls %6d  (%6.2f %%)   Ave conf = %8.1f   \00", align 1
@.str.7 = private unnamed_addr constant [5 x i8] c"Time\00", align 1
@.str.8 = private unnamed_addr constant [50 x i8] c"Sat   calls %6d  (%6.2f %%)   Ave conf = %8.1f   \00", align 1
@.str.9 = private unnamed_addr constant [50 x i8] c"Undef calls %6d  (%6.2f %%)   Ave conf = %8.1f   \00", align 1
@.str.10 = private unnamed_addr constant [11 x i8] c"Total time\00", align 1
@.str.21 = private unnamed_addr constant [5 x i8] c"%s =\00", align 1
@.str.22 = private unnamed_addr constant [22 x i8] c"%9.2f sec (%6.2f %%)\0A\00", align 1
@.str.23 = private unnamed_addr constant [11 x i8] c"%9.2f sec\0A\00", align 1

; Function Attrs: inlinehint nounwind uwtable
define internal i32 @Vec_IntSize(ptr noundef %0) #5 {
  %2 = alloca ptr, align 8
  store ptr %0, ptr %2, align 8, !tbaa !49
  %3 = load ptr, ptr %2, align 8, !tbaa !49
  %4 = getelementptr inbounds nuw %struct.Vec_Int_t_, ptr %3, i32 0, i32 1
  %5 = load i32, ptr %4, align 4, !tbaa !50
  ret i32 %5
}

; Function Attrs: inlinehint nounwind uwtable
define internal void @Abc_PrintTime(i32 noundef %0, ptr noundef %1, i64 noundef %2) #5 {
  %4 = alloca i32, align 4
  %5 = alloca ptr, align 8
  %6 = alloca i64, align 8
  store i32 %0, ptr %4, align 4, !tbaa !43
  store ptr %1, ptr %5, align 8, !tbaa !68
  store i64 %2, ptr %6, align 8, !tbaa !73
  %7 = load ptr, ptr %5, align 8, !tbaa !68
  call void (i32, ptr, ...) @Abc_Print(i32 noundef 1, ptr noundef @.str.21, ptr noundef %7)
  %8 = load i64, ptr %6, align 8, !tbaa !73
  %9 = sitofp i64 %8 to double
  %10 = fmul double 1.000000e+00, %9
  %11 = fdiv double %10, 1.000000e+06
  call void (i32, ptr, ...) @Abc_Print(i32 noundef 1, ptr noundef @.str.23, double noundef %11)
  ret void
}

; Function Attrs: inlinehint nounwind uwtable
define internal void @Abc_PrintTimeP(i32 noundef %0, ptr noundef %1, i64 noundef %2, i64 noundef %3) #5 {
  %5 = alloca i32, align 4
  %6 = alloca ptr, align 8
  %7 = alloca i64, align 8
  %8 = alloca i64, align 8
  store i32 %0, ptr %5, align 4, !tbaa !43
  store ptr %1, ptr %6, align 8, !tbaa !68
  store i64 %2, ptr %7, align 8, !tbaa !73
  store i64 %3, ptr %8, align 8, !tbaa !73
  %9 = load ptr, ptr %6, align 8, !tbaa !68
  call void (i32, ptr, ...) @Abc_Print(i32 noundef 1, ptr noundef @.str.21, ptr noundef %9)
  %10 = load i64, ptr %7, align 8, !tbaa !73
  %11 = sitofp i64 %10 to double
  %12 = fmul double 1.000000e+00, %11
  %13 = fdiv double %12, 1.000000e+06
  %14 = load i64, ptr %8, align 8, !tbaa !73
  %15 = sitofp i64 %14 to double
  %16 = fcmp une double %15, 0.000000e+00
  br i1 %16, label %17, label %24

17:                                               ; preds = %4
  %18 = load i64, ptr %7, align 8, !tbaa !73
  %19 = sitofp i64 %18 to double
  %20 = fmul double 1.000000e+02, %19
  %21 = load i64, ptr %8, align 8, !tbaa !73
  %22 = sitofp i64 %21 to double
  %23 = fdiv double %20, %22
  br label %25

24:                                               ; preds = %4
  br label %25

25:                                               ; preds = %24, %17
  %26 = phi double [ %23, %17 ], [ 0.000000e+00, %24 ]
  call void (i32, ptr, ...) @Abc_Print(i32 noundef 1, ptr noundef @.str.22, double noundef %13, double noundef %26)
  ret void
}

; Function Attrs: inlinehint nounwind uwtable
define internal i32 @Gia_ManAndNum(ptr noundef %0) #5 {
  %2 = alloca ptr, align 8
  store ptr %0, ptr %2, align 8, !tbaa !3
  %3 = load ptr, ptr %2, align 8, !tbaa !3
  %4 = getelementptr inbounds nuw %struct.Gia_Man_t_, ptr %3, i32 0, i32 4
  %5 = load i32, ptr %4, align 8, !tbaa !26
  %6 = load ptr, ptr %2, align 8, !tbaa !3
  %7 = getelementptr inbounds nuw %struct.Gia_Man_t_, ptr %6, i32 0, i32 11
  %8 = load ptr, ptr %7, align 8, !tbaa !72
  %9 = call i32 @Vec_IntSize(ptr noundef %8)
  %10 = sub nsw i32 %5, %9
  %11 = load ptr, ptr %2, align 8, !tbaa !3
  %12 = getelementptr inbounds nuw %struct.Gia_Man_t_, ptr %11, i32 0, i32 12
  %13 = load ptr, ptr %12, align 8, !tbaa !71
  %14 = call i32 @Vec_IntSize(ptr noundef %13)
  %15 = sub nsw i32 %10, %14
  %16 = sub nsw i32 %15, 1
  ret i32 %16
}

; Function Attrs: inlinehint nounwind uwtable
define internal i32 @Gia_ManCoNum(ptr noundef %0) #5 {
  %2 = alloca ptr, align 8
  store ptr %0, ptr %2, align 8, !tbaa !3
  %3 = load ptr, ptr %2, align 8, !tbaa !3
  %4 = getelementptr inbounds nuw %struct.Gia_Man_t_, ptr %3, i32 0, i32 12
  %5 = load ptr, ptr %4, align 8, !tbaa !71
  %6 = call i32 @Vec_IntSize(ptr noundef %5)
  ret i32 %6
}

; Function Attrs: nounwind uwtable
define void @Cec_ManSatPrintStats(ptr noundef %0) #0 {
  %2 = alloca ptr, align 8
  store ptr %0, ptr %2, align 8, !tbaa !10
  %3 = call i32 (ptr, ...) @printf(ptr noundef @.str)
  %4 = load ptr, ptr %2, align 8, !tbaa !10
  %5 = getelementptr inbounds nuw %struct.Cec_ManSat_t_, ptr %4, i32 0, i32 1
  %6 = load ptr, ptr %5, align 8, !tbaa !19
  %7 = call i32 @Gia_ManCoNum(ptr noundef %6)
  call void (i32, ptr, ...) @Abc_Print(i32 noundef 1, ptr noundef @.str.1, i32 noundef %7)
  %8 = load ptr, ptr %2, align 8, !tbaa !10
  %9 = getelementptr inbounds nuw %struct.Cec_ManSat_t_, ptr %8, i32 0, i32 1
  %10 = load ptr, ptr %9, align 8, !tbaa !19
  %11 = call i32 @Gia_ManAndNum(ptr noundef %10)
  call void (i32, ptr, ...) @Abc_Print(i32 noundef 1, ptr noundef @.str.2, i32 noundef %11)
  %12 = load ptr, ptr %2, align 8, !tbaa !10
  %13 = getelementptr inbounds nuw %struct.Cec_ManSat_t_, ptr %12, i32 0, i32 0
  %14 = load ptr, ptr %13, align 8, !tbaa !12
  %15 = getelementptr inbounds nuw %struct.Cec_ParSat_t_, ptr %14, i32 0, i32 1
  %16 = load i32, ptr %15, align 4, !tbaa !53
  call void (i32, ptr, ...) @Abc_Print(i32 noundef 1, ptr noundef @.str.3, i32 noundef %16)
  %17 = load ptr, ptr %2, align 8, !tbaa !10
  %18 = getelementptr inbounds nuw %struct.Cec_ManSat_t_, ptr %17, i32 0, i32 0
  %19 = load ptr, ptr %18, align 8, !tbaa !12
  %20 = getelementptr inbounds nuw %struct.Cec_ParSat_t_, ptr %19, i32 0, i32 2
  %21 = load i32, ptr %20, align 4, !tbaa !55
  call void (i32, ptr, ...) @Abc_Print(i32 noundef 1, ptr noundef @.str.4, i32 noundef %21)
  %22 = load ptr, ptr %2, align 8, !tbaa !10
  %23 = getelementptr inbounds nuw %struct.Cec_ManSat_t_, ptr %22, i32 0, i32 0
  %24 = load ptr, ptr %23, align 8, !tbaa !12
  %25 = getelementptr inbounds nuw %struct.Cec_ParSat_t_, ptr %24, i32 0, i32 3
  %26 = load i32, ptr %25, align 4, !tbaa !56
  call void (i32, ptr, ...) @Abc_Print(i32 noundef 1, ptr noundef @.str.5, i32 noundef %26)
  %27 = load ptr, ptr %2, align 8, !tbaa !10
  %28 = getelementptr inbounds nuw %struct.Cec_ManSat_t_, ptr %27, i32 0, i32 13
  %29 = load i32, ptr %28, align 8, !tbaa !57
  %30 = load ptr, ptr %2, align 8, !tbaa !10
  %31 = getelementptr inbounds nuw %struct.Cec_ManSat_t_, ptr %30, i32 0, i32 16
  %32 = load i32, ptr %31, align 4, !tbaa !58
  %33 = icmp ne i32 %32, 0
  br i1 %33, label %34, label %45

34:                                               ; preds = %1
  %35 = load ptr, ptr %2, align 8, !tbaa !10
  %36 = getelementptr inbounds nuw %struct.Cec_ManSat_t_, ptr %35, i32 0, i32 13
  %37 = load i32, ptr %36, align 8, !tbaa !57
  %38 = sitofp i32 %37 to double
  %39 = fmul double 1.000000e+02, %38
  %40 = load ptr, ptr %2, align 8, !tbaa !10
  %41 = getelementptr inbounds nuw %struct.Cec_ManSat_t_, ptr %40, i32 0, i32 16
  %42 = load i32, ptr %41, align 4, !tbaa !58
  %43 = sitofp i32 %42 to double
  %44 = fdiv double %39, %43
  br label %46

45:                                               ; preds = %1
  br label %46

46:                                               ; preds = %45, %34
  %47 = phi double [ %44, %34 ], [ 0.000000e+00, %45 ]
  %48 = load ptr, ptr %2, align 8, !tbaa !10
  %49 = getelementptr inbounds nuw %struct.Cec_ManSat_t_, ptr %48, i32 0, i32 13
  %50 = load i32, ptr %49, align 8, !tbaa !57
  %51 = icmp ne i32 %50, 0
  br i1 %51, label %52, label %63

52:                                               ; preds = %46
  %53 = load ptr, ptr %2, align 8, !tbaa !10
  %54 = getelementptr inbounds nuw %struct.Cec_ManSat_t_, ptr %53, i32 0, i32 18
  %55 = load i32, ptr %54, align 4, !tbaa !59
  %56 = sitofp i32 %55 to double
  %57 = fmul double 1.000000e+00, %56
  %58 = load ptr, ptr %2, align 8, !tbaa !10
  %59 = getelementptr inbounds nuw %struct.Cec_ManSat_t_, ptr %58, i32 0, i32 13
  %60 = load i32, ptr %59, align 8, !tbaa !57
  %61 = sitofp i32 %60 to double
  %62 = fdiv double %57, %61
  br label %64

63:                                               ; preds = %46
  br label %64

64:                                               ; preds = %63, %52
  %65 = phi double [ %62, %52 ], [ 0.000000e+00, %63 ]
  call void (i32, ptr, ...) @Abc_Print(i32 noundef 1, ptr noundef @.str.6, i32 noundef %29, double noundef %47, double noundef %65)
  %66 = load ptr, ptr %2, align 8, !tbaa !10
  %67 = getelementptr inbounds nuw %struct.Cec_ManSat_t_, ptr %66, i32 0, i32 21
  %68 = load i32, ptr %67, align 8, !tbaa !60
  %69 = sext i32 %68 to i64
  %70 = load ptr, ptr %2, align 8, !tbaa !10
  %71 = getelementptr inbounds nuw %struct.Cec_ManSat_t_, ptr %70, i32 0, i32 24
  %72 = load i32, ptr %71, align 4, !tbaa !61
  %73 = sext i32 %72 to i64
  call void @Abc_PrintTimeP(i32 noundef 1, ptr noundef @.str.7, i64 noundef %69, i64 noundef %73)
  %74 = load ptr, ptr %2, align 8, !tbaa !10
  %75 = getelementptr inbounds nuw %struct.Cec_ManSat_t_, ptr %74, i32 0, i32 14
  %76 = load i32, ptr %75, align 4, !tbaa !62
  %77 = load ptr, ptr %2, align 8, !tbaa !10
  %78 = getelementptr inbounds nuw %struct.Cec_ManSat_t_, ptr %77, i32 0, i32 16
  %79 = load i32, ptr %78, align 4, !tbaa !58
  %80 = icmp ne i32 %79, 0
  br i1 %80, label %81, label %92

81:                                               ; preds = %64
  %82 = load ptr, ptr %2, align 8, !tbaa !10
  %83 = getelementptr inbounds nuw %struct.Cec_ManSat_t_, ptr %82, i32 0, i32 14
  %84 = load i32, ptr %83, align 4, !tbaa !62
  %85 = sitofp i32 %84 to double
  %86 = fmul double 1.000000e+02, %85
  %87 = load ptr, ptr %2, align 8, !tbaa !10
  %88 = getelementptr inbounds nuw %struct.Cec_ManSat_t_, ptr %87, i32 0, i32 16
  %89 = load i32, ptr %88, align 4, !tbaa !58
  %90 = sitofp i32 %89 to double
  %91 = fdiv double %86, %90
  br label %93

92:                                               ; preds = %64
  br label %93

93:                                               ; preds = %92, %81
  %94 = phi double [ %91, %81 ], [ 0.000000e+00, %92 ]
  %95 = load ptr, ptr %2, align 8, !tbaa !10
  %96 = getelementptr inbounds nuw %struct.Cec_ManSat_t_, ptr %95, i32 0, i32 14
  %97 = load i32, ptr %96, align 4, !tbaa !62
  %98 = icmp ne i32 %97, 0
  br i1 %98, label %99, label %110

99:                                               ; preds = %93
  %100 = load ptr, ptr %2, align 8, !tbaa !10
  %101 = getelementptr inbounds nuw %struct.Cec_ManSat_t_, ptr %100, i32 0, i32 19
  %102 = load i32, ptr %101, align 8, !tbaa !63
  %103 = sitofp i32 %102 to double
  %104 = fmul double 1.000000e+00, %103
  %105 = load ptr, ptr %2, align 8, !tbaa !10
  %106 = getelementptr inbounds nuw %struct.Cec_ManSat_t_, ptr %105, i32 0, i32 14
  %107 = load i32, ptr %106, align 4, !tbaa !62
  %108 = sitofp i32 %107 to double
  %109 = fdiv double %104, %108
  br label %111

110:                                              ; preds = %93
  br label %111

111:                                              ; preds = %110, %99
  %112 = phi double [ %109, %99 ], [ 0.000000e+00, %110 ]
  call void (i32, ptr, ...) @Abc_Print(i32 noundef 1, ptr noundef @.str.8, i32 noundef %76, double noundef %94, double noundef %112)
  %113 = load ptr, ptr %2, align 8, !tbaa !10
  %114 = getelementptr inbounds nuw %struct.Cec_ManSat_t_, ptr %113, i32 0, i32 22
  %115 = load i32, ptr %114, align 4, !tbaa !64
  %116 = sext i32 %115 to i64
  %117 = load ptr, ptr %2, align 8, !tbaa !10
  %118 = getelementptr inbounds nuw %struct.Cec_ManSat_t_, ptr %117, i32 0, i32 24
  %119 = load i32, ptr %118, align 4, !tbaa !61
  %120 = sext i32 %119 to i64
  call void @Abc_PrintTimeP(i32 noundef 1, ptr noundef @.str.7, i64 noundef %116, i64 noundef %120)
  %121 = load ptr, ptr %2, align 8, !tbaa !10
  %122 = getelementptr inbounds nuw %struct.Cec_ManSat_t_, ptr %121, i32 0, i32 15
  %123 = load i32, ptr %122, align 8, !tbaa !65
  %124 = load ptr, ptr %2, align 8, !tbaa !10
  %125 = getelementptr inbounds nuw %struct.Cec_ManSat_t_, ptr %124, i32 0, i32 16
  %126 = load i32, ptr %125, align 4, !tbaa !58
  %127 = icmp ne i32 %126, 0
  br i1 %127, label %128, label %139

128:                                              ; preds = %111
  %129 = load ptr, ptr %2, align 8, !tbaa !10
  %130 = getelementptr inbounds nuw %struct.Cec_ManSat_t_, ptr %129, i32 0, i32 15
  %131 = load i32, ptr %130, align 8, !tbaa !65
  %132 = sitofp i32 %131 to double
  %133 = fmul double 1.000000e+02, %132
  %134 = load ptr, ptr %2, align 8, !tbaa !10
  %135 = getelementptr inbounds nuw %struct.Cec_ManSat_t_, ptr %134, i32 0, i32 16
  %136 = load i32, ptr %135, align 4, !tbaa !58
  %137 = sitofp i32 %136 to double
  %138 = fdiv double %133, %137
  br label %140

139:                                              ; preds = %111
  br label %140

140:                                              ; preds = %139, %128
  %141 = phi double [ %138, %128 ], [ 0.000000e+00, %139 ]
  %142 = load ptr, ptr %2, align 8, !tbaa !10
  %143 = getelementptr inbounds nuw %struct.Cec_ManSat_t_, ptr %142, i32 0, i32 15
  %144 = load i32, ptr %143, align 8, !tbaa !65
  %145 = icmp ne i32 %144, 0
  br i1 %145, label %146, label %157

146:                                              ; preds = %140
  %147 = load ptr, ptr %2, align 8, !tbaa !10
  %148 = getelementptr inbounds nuw %struct.Cec_ManSat_t_, ptr %147, i32 0, i32 20
  %149 = load i32, ptr %148, align 4, !tbaa !66
  %150 = sitofp i32 %149 to double
  %151 = fmul double 1.000000e+00, %150
  %152 = load ptr, ptr %2, align 8, !tbaa !10
  %153 = getelementptr inbounds nuw %struct.Cec_ManSat_t_, ptr %152, i32 0, i32 15
  %154 = load i32, ptr %153, align 8, !tbaa !65
  %155 = sitofp i32 %154 to double
  %156 = fdiv double %151, %155
  br label %158

157:                                              ; preds = %140
  br label %158

158:                                              ; preds = %157, %146
  %159 = phi double [ %156, %146 ], [ 0.000000e+00, %157 ]
  call void (i32, ptr, ...) @Abc_Print(i32 noundef 1, ptr noundef @.str.9, i32 noundef %123, double noundef %141, double noundef %159)
  %160 = load ptr, ptr %2, align 8, !tbaa !10
  %161 = getelementptr inbounds nuw %struct.Cec_ManSat_t_, ptr %160, i32 0, i32 23
  %162 = load i32, ptr %161, align 8, !tbaa !67
  %163 = sext i32 %162 to i64
  %164 = load ptr, ptr %2, align 8, !tbaa !10
  %165 = getelementptr inbounds nuw %struct.Cec_ManSat_t_, ptr %164, i32 0, i32 24
  %166 = load i32, ptr %165, align 4, !tbaa !61
  %167 = sext i32 %166 to i64
  call void @Abc_PrintTimeP(i32 noundef 1, ptr noundef @.str.7, i64 noundef %163, i64 noundef %167)
  %168 = load ptr, ptr %2, align 8, !tbaa !10
  %169 = getelementptr inbounds nuw %struct.Cec_ManSat_t_, ptr %168, i32 0, i32 24
  %170 = load i32, ptr %169, align 4, !tbaa !61
  %171 = sext i32 %170 to i64
  call void @Abc_PrintTime(i32 noundef 1, ptr noundef @.str.10, i64 noundef %171)
  ret void
}