; Function Attrs: nounwind uwtable
define void @Cec_ManSatPrintStats(ptr noundef readonly captures(none) %0) local_unnamed_addr #5 {
  %puts = tail call i32 @puts(ptr nonnull dereferenceable(1) @str)
  %2 = getelementptr inbounds nuw i8, ptr %0, i64 8
  %3 = load ptr, ptr %2, align 8, !tbaa !15
  %4 = getelementptr i8, ptr %3, i64 72
  %.val = load ptr, ptr %4, align 8, !tbaa !46
  %5 = getelementptr i8, ptr %.val, i64 4
  %.val.val = load i32, ptr %5, align 4, !tbaa !41
  tail call void (i32, ptr, ...) @Abc_Print(i32 poison, ptr noundef nonnull @.str.1, i32 noundef %.val.val)
  %6 = load ptr, ptr %2, align 8, !tbaa !15
  %7 = getelementptr inbounds nuw i8, ptr %6, i64 24
  %8 = load i32, ptr %7, align 8, !tbaa !17
  %9 = getelementptr inbounds nuw i8, ptr %6, i64 64
  %10 = load ptr, ptr %9, align 8, !tbaa !47
  %11 = getelementptr i8, ptr %10, i64 4
  %.val.i = load i32, ptr %11, align 4, !tbaa !41
  %12 = getelementptr inbounds nuw i8, ptr %6, i64 72
  %13 = load ptr, ptr %12, align 8, !tbaa !46
  %14 = getelementptr i8, ptr %13, i64 4
  %.val3.i = load i32, ptr %14, align 4, !tbaa !41
  %15 = add i32 %.val3.i, %.val.i
  %16 = xor i32 %15, -1
  %17 = add i32 %8, %16
  tail call void (i32, ptr, ...) @Abc_Print(i32 poison, ptr noundef nonnull @.str.2, i32 noundef %17)
  %18 = load ptr, ptr %0, align 8, !tbaa !3
  %19 = getelementptr inbounds nuw i8, ptr %18, i64 4
  %20 = load i32, ptr %19, align 4, !tbaa !48
  tail call void (i32, ptr, ...) @Abc_Print(i32 poison, ptr noundef nonnull @.str.3, i32 noundef %20)
  %21 = load ptr, ptr %0, align 8, !tbaa !3
  %22 = getelementptr inbounds nuw i8, ptr %21, i64 8
  %23 = load i32, ptr %22, align 4, !tbaa !50
  tail call void (i32, ptr, ...) @Abc_Print(i32 poison, ptr noundef nonnull @.str.4, i32 noundef %23)
  %24 = load ptr, ptr %0, align 8, !tbaa !3
  %25 = getelementptr inbounds nuw i8, ptr %24, i64 12
  %26 = load i32, ptr %25, align 4, !tbaa !51
  tail call void (i32, ptr, ...) @Abc_Print(i32 poison, ptr noundef nonnull @.str.5, i32 noundef %26)
  %27 = getelementptr inbounds nuw i8, ptr %0, i64 96
  %28 = load i32, ptr %27, align 8, !tbaa !52
  %29 = getelementptr inbounds nuw i8, ptr %0, i64 108
  %30 = load i32, ptr %29, align 4, !tbaa !53
  %.not = icmp eq i32 %30, 0
  %31 = sitofp i32 %28 to double
  %32 = fmul double %31, 1.000000e+02
  %33 = sitofp i32 %30 to double
  %34 = fdiv double %32, %33
  %35 = select i1 %.not, double 0.000000e+00, double %34
  %.not38 = icmp eq i32 %28, 0
  br i1 %.not38, label %41, label %36

36:                                               ; preds = %1
  %37 = getelementptr inbounds nuw i8, ptr %0, i64 116
  %38 = load i32, ptr %37, align 4, !tbaa !54
  %39 = sitofp i32 %38 to double
  %40 = fdiv double %39, %31
  br label %41

41:                                               ; preds = %1, %36
  %42 = phi double [ %40, %36 ], [ 0.000000e+00, %1 ]
  tail call void (i32, ptr, ...) @Abc_Print(i32 poison, ptr noundef nonnull @.str.6, i32 noundef %28, double noundef %35, double noundef %42)
  %43 = getelementptr inbounds nuw i8, ptr %0, i64 128
  %44 = load i32, ptr %43, align 8, !tbaa !55
  %45 = getelementptr inbounds nuw i8, ptr %0, i64 140
  %46 = load i32, ptr %45, align 4, !tbaa !56
  tail call void (i32, ptr, ...) @Abc_Print(i32 poison, ptr noundef nonnull @.str.21, ptr noundef nonnull @.str.7)
  %47 = sitofp i32 %44 to double
  %.not.i = icmp eq i32 %46, 0
  %48 = sitofp i32 %46 to double
  %49 = fmul double %47, 1.000000e+02
  %50 = fdiv double %49, %48
  %51 = select i1 %.not.i, double 0.000000e+00, double %50
  %52 = fdiv double %47, 1.000000e+06
  tail call void (i32, ptr, ...) @Abc_Print(i32 poison, ptr noundef nonnull @.str.22, double noundef %52, double noundef %51)
  %53 = getelementptr inbounds nuw i8, ptr %0, i64 100
  %54 = load i32, ptr %53, align 4, !tbaa !57
  %55 = load i32, ptr %29, align 4, !tbaa !53
  %.not39 = icmp eq i32 %55, 0
  %56 = sitofp i32 %54 to double
  %57 = fmul double %56, 1.000000e+02
  %58 = sitofp i32 %55 to double
  %59 = fdiv double %57, %58
  %60 = select i1 %.not39, double 0.000000e+00, double %59
  %.not40 = icmp eq i32 %54, 0
  br i1 %.not40, label %66, label %61

61:                                               ; preds = %41
  %62 = getelementptr inbounds nuw i8, ptr %0, i64 120
  %63 = load i32, ptr %62, align 8, !tbaa !58
  %64 = sitofp i32 %63 to double
  %65 = fdiv double %64, %56
  br label %66

66:                                               ; preds = %41, %61
  %67 = phi double [ %65, %61 ], [ 0.000000e+00, %41 ]
  tail call void (i32, ptr, ...) @Abc_Print(i32 poison, ptr noundef nonnull @.str.8, i32 noundef %54, double noundef %60, double noundef %67)
  %68 = getelementptr inbounds nuw i8, ptr %0, i64 132
  %69 = load i32, ptr %68, align 4, !tbaa !59
  %70 = load i32, ptr %45, align 4, !tbaa !56
  tail call void (i32, ptr, ...) @Abc_Print(i32 poison, ptr noundef nonnull @.str.21, ptr noundef nonnull @.str.7)
  %71 = sitofp i32 %69 to double
  %.not.i43 = icmp eq i32 %70, 0
  %72 = sitofp i32 %70 to double
  %73 = fmul double %71, 1.000000e+02
  %74 = fdiv double %73, %72
  %75 = select i1 %.not.i43, double 0.000000e+00, double %74
  %76 = fdiv double %71, 1.000000e+06
  tail call void (i32, ptr, ...) @Abc_Print(i32 poison, ptr noundef nonnull @.str.22, double noundef %76, double noundef %75)
  %77 = getelementptr inbounds nuw i8, ptr %0, i64 104
  %78 = load i32, ptr %77, align 8, !tbaa !60
  %79 = load i32, ptr %29, align 4, !tbaa !53
  %80 = sitofp i32 %78 to double
  %.not42 = icmp eq i32 %78, 0
  br i1 %.not42, label %86, label %81

81:                                               ; preds = %66
  %82 = getelementptr inbounds nuw i8, ptr %0, i64 124
  %83 = load i32, ptr %82, align 4, !tbaa !61
  %84 = sitofp i32 %83 to double
  %85 = fdiv double %84, %80
  br label %86

86:                                               ; preds = %66, %81
  %87 = phi double [ %85, %81 ], [ 0.000000e+00, %66 ]
  %.not41 = icmp eq i32 %79, 0
  %88 = fmul double %80, 1.000000e+02
  %89 = sitofp i32 %79 to double
  %90 = fdiv double %88, %89
  %91 = select i1 %.not41, double 0.000000e+00, double %90
  tail call void (i32, ptr, ...) @Abc_Print(i32 poison, ptr noundef nonnull @.str.9, i32 noundef %78, double noundef %91, double noundef %87)
  %92 = getelementptr inbounds nuw i8, ptr %0, i64 136
  %93 = load i32, ptr %92, align 8, !tbaa !62
  %94 = load i32, ptr %45, align 4, !tbaa !56
  tail call void (i32, ptr, ...) @Abc_Print(i32 poison, ptr noundef nonnull @.str.21, ptr noundef nonnull @.str.7)
  %95 = sitofp i32 %93 to double
  %.not.i44 = icmp eq i32 %94, 0
  %96 = sitofp i32 %94 to double
  %97 = fmul double %95, 1.000000e+02
  %98 = fdiv double %97, %96
  %99 = select i1 %.not.i44, double 0.000000e+00, double %98
  %100 = fdiv double %95, 1.000000e+06
  tail call void (i32, ptr, ...) @Abc_Print(i32 poison, ptr noundef nonnull @.str.22, double noundef %100, double noundef %99)
  %101 = load i32, ptr %45, align 4, !tbaa !56
  tail call void (i32, ptr, ...) @Abc_Print(i32 poison, ptr noundef nonnull @.str.21, ptr noundef nonnull @.str.10)
  %102 = sitofp i32 %101 to double
  %103 = fdiv double %102, 1.000000e+06
  tail call void (i32, ptr, ...) @Abc_Print(i32 poison, ptr noundef nonnull @.str.23, double noundef %103)
  ret void
}